; ModuleID = '22/283.c'
source_filename = "22/283.c"
target datalayout = "e-m:e-p270:32:32-p271:32:32-p272:64:64-i64:64-f80:128-n8:16:32:64-S128"
target triple = "x86_64-pc-linux-gnu"

@.str = private unnamed_addr constant [3 x i8] c"%s\00", align 1
@.str.1 = private unnamed_addr constant [4 x i8] c"%d\0A\00", align 1
@.str.2 = private unnamed_addr constant [4 x i8] c"No\0A\00", align 1

; Function Attrs: noinline nounwind uwtable
define dso_local void @main() #0 {
  %1 = alloca [3000 x i32], align 16
  %2 = alloca [3000 x i32], align 16
  %3 = alloca [3000 x i8], align 16
  %4 = alloca i32, align 4
  %5 = alloca i32, align 4
  %6 = alloca i32, align 4
  %7 = alloca i32, align 4
  %8 = alloca i32, align 4
  %9 = alloca i32, align 4
  %10 = bitcast [3000 x i32]* %1 to i8*
  call void @llvm.memset.p0i8.i64(i8* align 16 %10, i8 0, i64 12000, i1 false)
  %11 = bitcast [3000 x i32]* %2 to i8*
  call void @llvm.memset.p0i8.i64(i8* align 16 %11, i8 0, i64 12000, i1 false)
  %12 = bitcast [3000 x i8]* %3 to i8*
  call void @llvm.memset.p0i8.i64(i8* align 16 %12, i8 0, i64 3000, i1 false)
  store i32 0, i32* %7, align 4
  store i32 0, i32* %8, align 4
  %13 = getelementptr inbounds [3000 x i8], [3000 x i8]* %3, i64 0, i64 0
  %14 = call i32 (i8*, ...) @__isoc99_scanf(i8* getelementptr inbounds ([3 x i8], [3 x i8]* @.str, i64 0, i64 0), i8* %13)
  store i32 0, i32* %4, align 4
  br label %15

15:                                               ; preds = %72, %0
  %16 = load i32, i32* %4, align 4
  %17 = icmp slt i32 %16, 300
  br i1 %17, label %18, label %75

18:                                               ; preds = %15
  %19 = load i32, i32* %4, align 4
  %20 = sext i32 %19 to i64
  %21 = getelementptr inbounds [3000 x i8], [3000 x i8]* %3, i64 0, i64 %20
  %22 = load i8, i8* %21, align 1
  %23 = sext i8 %22 to i32
  %24 = icmp sge i32 %23, 48
  br i1 %24, label %25, label %43

25:                                               ; preds = %18
  %26 = load i32, i32* %4, align 4
  %27 = sext i32 %26 to i64
  %28 = getelementptr inbounds [3000 x i8], [3000 x i8]* %3, i64 0, i64 %27
  %29 = load i8, i8* %28, align 1
  %30 = sext i8 %29 to i32
  %31 = icmp sle i32 %30, 57
  br i1 %31, label %32, label %43

32:                                               ; preds = %25
  %33 = load i32, i32* %4, align 4
  %34 = sext i32 %33 to i64
  %35 = getelementptr inbounds [3000 x i8], [3000 x i8]* %3, i64 0, i64 %34
  %36 = load i8, i8* %35, align 1
  %37 = sext i8 %36 to i32
  %38 = load i32, i32* %7, align 4
  %39 = sext i32 %38 to i64
  %40 = getelementptr inbounds [3000 x i32], [3000 x i32]* %1, i64 0, i64 %39
  store i32 %37, i32* %40, align 4
  %41 = load i32, i32* %7, align 4
  %42 = add nsw i32 %41, 1
  store i32 %42, i32* %7, align 4
  br label %71

43:                                               ; preds = %25, %18
  store i32 0, i32* %9, align 4
  %44 = load i32, i32* %7, align 4
  %45 = icmp ne i32 %44, 0
  br i1 %45, label %46, label %70

46:                                               ; preds = %43
  store i32 0, i32* %5, align 4
  br label %47

47:                                               ; preds = %60, %46
  %48 = load i32, i32* %5, align 4
  %49 = load i32, i32* %7, align 4
  %50 = icmp slt i32 %48, %49
  br i1 %50, label %51, label %63

51:                                               ; preds = %47
  %52 = load i32, i32* %9, align 4
  %53 = mul nsw i32 %52, 10
  %54 = load i32, i32* %5, align 4
  %55 = sext i32 %54 to i64
  %56 = getelementptr inbounds [3000 x i32], [3000 x i32]* %1, i64 0, i64 %55
  %57 = load i32, i32* %56, align 4
  %58 = add nsw i32 %53, %57
  %59 = sub nsw i32 %58, 48
  store i32 %59, i32* %9, align 4
  br label %60

60:                                               ; preds = %51
  %61 = load i32, i32* %5, align 4
  %62 = add nsw i32 %61, 1
  store i32 %62, i32* %5, align 4
  br label %47

63:                                               ; preds = %47
  %64 = load i32, i32* %9, align 4
  %65 = load i32, i32* %8, align 4
  %66 = sext i32 %65 to i64
  %67 = getelementptr inbounds [3000 x i32], [3000 x i32]* %2, i64 0, i64 %66
  store i32 %64, i32* %67, align 4
  %68 = load i32, i32* %8, align 4
  %69 = add nsw i32 %68, 1
  store i32 %69, i32* %8, align 4
  store i32 0, i32* %7, align 4
  br label %70

70:                                               ; preds = %63, %43
  br label %71

71:                                               ; preds = %70, %32
  br label %72

72:                                               ; preds = %71
  %73 = load i32, i32* %4, align 4
  %74 = add nsw i32 %73, 1
  store i32 %74, i32* %4, align 4
  br label %15

75:                                               ; preds = %15
  store i32 2, i32* %5, align 4
  br label %76

76:                                               ; preds = %122, %75
  %77 = load i32, i32* %5, align 4
  %78 = load i32, i32* %8, align 4
  %79 = add nsw i32 %78, 1
  %80 = icmp slt i32 %77, %79
  br i1 %80, label %81, label %125

81:                                               ; preds = %76
  store i32 0, i32* %4, align 4
  br label %82

82:                                               ; preds = %118, %81
  %83 = load i32, i32* %4, align 4
  %84 = load i32, i32* %8, align 4
  %85 = load i32, i32* %5, align 4
  %86 = sub nsw i32 %84, %85
  %87 = icmp sle i32 %83, %86
  br i1 %87, label %88, label %121

88:                                               ; preds = %82
  %89 = load i32, i32* %4, align 4
  %90 = sext i32 %89 to i64
  %91 = getelementptr inbounds [3000 x i32], [3000 x i32]* %2, i64 0, i64 %90
  %92 = load i32, i32* %91, align 4
  %93 = load i32, i32* %4, align 4
  %94 = add nsw i32 %93, 1
  %95 = sext i32 %94 to i64
  %96 = getelementptr inbounds [3000 x i32], [3000 x i32]* %2, i64 0, i64 %95
  %97 = load i32, i32* %96, align 4
  %98 = icmp slt i32 %92, %97
  br i1 %98, label %99, label %117

99:                                               ; preds = %88
  %100 = load i32, i32* %4, align 4
  %101 = sext i32 %100 to i64
  %102 = getelementptr inbounds [3000 x i32], [3000 x i32]* %2, i64 0, i64 %101
  %103 = load i32, i32* %102, align 4
  store i32 %103, i32* %6, align 4
  %104 = load i32, i32* %4, align 4
  %105 = add nsw i32 %104, 1
  %106 = sext i32 %105 to i64
  %107 = getelementptr inbounds [3000 x i32], [3000 x i32]* %2, i64 0, i64 %106
  %108 = load i32, i32* %107, align 4
  %109 = load i32, i32* %4, align 4
  %110 = sext i32 %109 to i64
  %111 = getelementptr inbounds [3000 x i32], [3000 x i32]* %2, i64 0, i64 %110
  store i32 %108, i32* %111, align 4
  %112 = load i32, i32* %6, align 4
  %113 = load i32, i32* %4, align 4
  %114 = add nsw i32 %113, 1
  %115 = sext i32 %114 to i64
  %116 = getelementptr inbounds [3000 x i32], [3000 x i32]* %2, i64 0, i64 %115
  store i32 %112, i32* %116, align 4
  br label %117

117:                                              ; preds = %99, %88
  br label %118

118:                                              ; preds = %117
  %119 = load i32, i32* %4, align 4
  %120 = add nsw i32 %119, 1
  store i32 %120, i32* %4, align 4
  br label %82

121:                                              ; preds = %82
  br label %122

122:                                              ; preds = %121
  %123 = load i32, i32* %5, align 4
  %124 = add nsw i32 %123, 1
  store i32 %124, i32* %5, align 4
  br label %76

125:                                              ; preds = %76
  store i32 1, i32* %4, align 4
  br label %126

126:                                              ; preds = %148, %125
  %127 = load i32, i32* %4, align 4
  %128 = load i32, i32* %8, align 4
  %129 = icmp slt i32 %127, %128
  br i1 %129, label %130, label %151

130:                                              ; preds = %126
  %131 = load i32, i32* %4, align 4
  %132 = sext i32 %131 to i64
  %133 = getelementptr inbounds [3000 x i32], [3000 x i32]* %2, i64 0, i64 %132
  %134 = load i32, i32* %133, align 4
  %135 = load i32, i32* %4, align 4
  %136 = sub nsw i32 %135, 1
  %137 = sext i32 %136 to i64
  %138 = getelementptr inbounds [3000 x i32], [3000 x i32]* %2, i64 0, i64 %137
  %139 = load i32, i32* %138, align 4
  %140 = icmp ne i32 %134, %139
  br i1 %140, label %141, label %147

141:                                              ; preds = %130
  %142 = load i32, i32* %4, align 4
  %143 = sext i32 %142 to i64
  %144 = getelementptr inbounds [3000 x i32], [3000 x i32]* %2, i64 0, i64 %143
  %145 = load i32, i32* %144, align 4
  %146 = call i32 (i8*, ...) @printf(i8* getelementptr inbounds ([4 x i8], [4 x i8]* @.str.1, i64 0, i64 0), i32 %145)
  br label %151

147:                                              ; preds = %130
  br label %148

148:                                              ; preds = %147
  %149 = load i32, i32* %4, align 4
  %150 = add nsw i32 %149, 1
  store i32 %150, i32* %4, align 4
  br label %126

151:                                              ; preds = %141, %126
  %152 = getelementptr inbounds [3000 x i32], [3000 x i32]* %2, i64 0, i64 0
  %153 = load i32, i32* %152, align 16
  %154 = load i32, i32* %8, align 4
  %155 = sub nsw i32 %154, 1
  %156 = sext i32 %155 to i64
  %157 = getelementptr inbounds [3000 x i32], [3000 x i32]* %2, i64 0, i64 %156
  %158 = load i32, i32* %157, align 4
  %159 = icmp eq i32 %153, %158
  br i1 %159, label %160, label %162

160:                                              ; preds = %151
  %161 = call i32 (i8*, ...) @printf(i8* getelementptr inbounds ([4 x i8], [4 x i8]* @.str.2, i64 0, i64 0))
  br label %162

162:                                              ; preds = %160, %151
  ret void
}

; Function Attrs: argmemonly nounwind willreturn
declare void @llvm.memset.p0i8.i64(i8* nocapture writeonly, i8, i64, i1 immarg) #1

declare dso_local i32 @__isoc99_scanf(i8*, ...) #2

declare dso_local i32 @printf(i8*, ...) #2


!llvm.module.flags = !{!0}
!llvm.ident = !{!1}

!0 = !{i32 1, !"wchar_size", i32 4}
!1 = !{!"clang version 10.0.0-4ubuntu1 "}
